; Function Attrs: nounwind uwtable
define dso_local void @RelationDecrementReferenceCount(ptr noundef %0) local_unnamed_addr #0 {
  %2 = getelementptr inbounds nuw i8, ptr %0, i64 24
  %3 = load i32, ptr %2, align 8
  %4 = add i32 %3, -1
  store i32 %4, ptr %2, align 8
  %5 = load i32, ptr @Mode, align 4
  %6 = icmp eq i32 %5, 0
  br i1 %6, label %10, label %7

7:                                                ; preds = %1
  %8 = load ptr, ptr @CurrentResourceOwner, align 8
  %9 = ptrtoint ptr %0 to i64
  tail call void @ResourceOwnerForget(ptr noundef %8, i64 noundef %9, ptr noundef nonnull @relref_resowner_desc) #13
  br label %10

10:                                               ; preds = %7, %1
  ret void
}